; ModuleID = '12/4.c'
source_filename = "12/4.c"
target datalayout = "e-m:e-p270:32:32-p271:32:32-p272:64:64-i64:64-f80:128-n8:16:32:64-S128"
target triple = "x86_64-pc-linux-gnu"

@.str = private unnamed_addr constant [3 x i8] c"%d\00", align 1
@.str.1 = private unnamed_addr constant [4 x i8] c"%d\0A\00", align 1

; Function Attrs: noinline nounwind uwtable
define dso_local i32 @main(i32 %0, i8** %1) #0 {
  %3 = alloca i32, align 4
  %4 = alloca i32, align 4
  %5 = alloca i8**, align 8
  %6 = alloca i32, align 4
  %7 = alloca [17 x i32], align 16
  %8 = alloca i32, align 4
  %9 = alloca i32, align 4
  %10 = alloca i32, align 4
  %11 = alloca i32, align 4
  %12 = alloca i32, align 4
  %13 = alloca i32, align 4
  %14 = alloca i32, align 4
  %15 = alloca i32, align 4
  store i32 0, i32* %3, align 4
  store i32 %0, i32* %4, align 4
  store i8** %1, i8*** %5, align 8
  store i32 1, i32* %6, align 4
  br label %16

16:                                               ; preds = %131, %2
  %17 = load i32, i32* %6, align 4
  %18 = icmp sle i32 %17, 100
  br i1 %18, label %19, label %134

19:                                               ; preds = %16
  store i32 0, i32* %9, align 4
  store i32 1, i32* %8, align 4
  br label %20

20:                                               ; preds = %37, %19
  %21 = load i32, i32* %8, align 4
  %22 = icmp sle i32 %21, 16
  br i1 %22, label %23, label %40

23:                                               ; preds = %20
  %24 = load i32, i32* %8, align 4
  %25 = sext i32 %24 to i64
  %26 = getelementptr inbounds [17 x i32], [17 x i32]* %7, i64 0, i64 %25
  %27 = call i32 (i8*, ...) @__isoc99_scanf(i8* getelementptr inbounds ([3 x i8], [3 x i8]* @.str, i64 0, i64 0), i32* %26)
  %28 = load i32, i32* %9, align 4
  %29 = add nsw i32 %28, 1
  store i32 %29, i32* %9, align 4
  %30 = load i32, i32* %8, align 4
  %31 = sext i32 %30 to i64
  %32 = getelementptr inbounds [17 x i32], [17 x i32]* %7, i64 0, i64 %31
  %33 = load i32, i32* %32, align 4
  %34 = icmp eq i32 %33, 0
  br i1 %34, label %35, label %36

35:                                               ; preds = %23
  br label %40

36:                                               ; preds = %23
  br label %37

37:                                               ; preds = %36
  %38 = load i32, i32* %8, align 4
  %39 = add nsw i32 %38, 1
  store i32 %39, i32* %8, align 4
  br label %20

40:                                               ; preds = %35, %20
  %41 = getelementptr inbounds [17 x i32], [17 x i32]* %7, i64 0, i64 1
  %42 = load i32, i32* %41, align 4
  %43 = icmp eq i32 %42, -1
  br i1 %43, label %44, label %45

44:                                               ; preds = %40
  br label %134

45:                                               ; preds = %40
  store i32 1, i32* %10, align 4
  br label %46

46:                                               ; preds = %89, %45
  %47 = load i32, i32* %10, align 4
  %48 = load i32, i32* %9, align 4
  %49 = sub nsw i32 %48, 1
  %50 = icmp slt i32 %47, %49
  br i1 %50, label %51, label %92

51:                                               ; preds = %46
  %52 = load i32, i32* %10, align 4
  %53 = add nsw i32 %52, 1
  store i32 %53, i32* %11, align 4
  br label %54

54:                                               ; preds = %85, %51
  %55 = load i32, i32* %11, align 4
  %56 = load i32, i32* %9, align 4
  %57 = icmp slt i32 %55, %56
  br i1 %57, label %58, label %88

58:                                               ; preds = %54
  %59 = load i32, i32* %10, align 4
  %60 = sext i32 %59 to i64
  %61 = getelementptr inbounds [17 x i32], [17 x i32]* %7, i64 0, i64 %60
  %62 = load i32, i32* %61, align 4
  %63 = load i32, i32* %11, align 4
  %64 = sext i32 %63 to i64
  %65 = getelementptr inbounds [17 x i32], [17 x i32]* %7, i64 0, i64 %64
  %66 = load i32, i32* %65, align 4
  %67 = icmp sgt i32 %62, %66
  br i1 %67, label %68, label %84

68:                                               ; preds = %58
  %69 = load i32, i32* %11, align 4
  %70 = sext i32 %69 to i64
  %71 = getelementptr inbounds [17 x i32], [17 x i32]* %7, i64 0, i64 %70
  %72 = load i32, i32* %71, align 4
  store i32 %72, i32* %12, align 4
  %73 = load i32, i32* %10, align 4
  %74 = sext i32 %73 to i64
  %75 = getelementptr inbounds [17 x i32], [17 x i32]* %7, i64 0, i64 %74
  %76 = load i32, i32* %75, align 4
  %77 = load i32, i32* %11, align 4
  %78 = sext i32 %77 to i64
  %79 = getelementptr inbounds [17 x i32], [17 x i32]* %7, i64 0, i64 %78
  store i32 %76, i32* %79, align 4
  %80 = load i32, i32* %12, align 4
  %81 = load i32, i32* %10, align 4
  %82 = sext i32 %81 to i64
  %83 = getelementptr inbounds [17 x i32], [17 x i32]* %7, i64 0, i64 %82
  store i32 %80, i32* %83, align 4
  br label %84

84:                                               ; preds = %68, %58
  br label %85

85:                                               ; preds = %84
  %86 = load i32, i32* %11, align 4
  %87 = add nsw i32 %86, 1
  store i32 %87, i32* %11, align 4
  br label %54

88:                                               ; preds = %54
  br label %89

89:                                               ; preds = %88
  %90 = load i32, i32* %10, align 4
  %91 = add nsw i32 %90, 1
  store i32 %91, i32* %10, align 4
  br label %46

92:                                               ; preds = %46
  store i32 0, i32* %15, align 4
  store i32 1, i32* %13, align 4
  br label %93

93:                                               ; preds = %125, %92
  %94 = load i32, i32* %13, align 4
  %95 = load i32, i32* %9, align 4
  %96 = sub nsw i32 %95, 1
  %97 = icmp slt i32 %94, %96
  br i1 %97, label %98, label %128

98:                                               ; preds = %93
  %99 = load i32, i32* %13, align 4
  %100 = add nsw i32 %99, 1
  store i32 %100, i32* %14, align 4
  br label %101

101:                                              ; preds = %121, %98
  %102 = load i32, i32* %14, align 4
  %103 = load i32, i32* %9, align 4
  %104 = sub nsw i32 %103, 1
  %105 = icmp sle i32 %102, %104
  br i1 %105, label %106, label %124

106:                                              ; preds = %101
  %107 = load i32, i32* %13, align 4
  %108 = sext i32 %107 to i64
  %109 = getelementptr inbounds [17 x i32], [17 x i32]* %7, i64 0, i64 %108
  %110 = load i32, i32* %109, align 4
  %111 = mul nsw i32 %110, 2
  %112 = load i32, i32* %14, align 4
  %113 = sext i32 %112 to i64
  %114 = getelementptr inbounds [17 x i32], [17 x i32]* %7, i64 0, i64 %113
  %115 = load i32, i32* %114, align 4
  %116 = icmp eq i32 %111, %115
  br i1 %116, label %117, label %120

117:                                              ; preds = %106
  %118 = load i32, i32* %15, align 4
  %119 = add nsw i32 %118, 1
  store i32 %119, i32* %15, align 4
  br label %124

120:                                              ; preds = %106
  br label %121

121:                                              ; preds = %120
  %122 = load i32, i32* %14, align 4
  %123 = add nsw i32 %122, 1
  store i32 %123, i32* %14, align 4
  br label %101

124:                                              ; preds = %117, %101
  br label %125

125:                                              ; preds = %124
  %126 = load i32, i32* %13, align 4
  %127 = add nsw i32 %126, 1
  store i32 %127, i32* %13, align 4
  br label %93

128:                                              ; preds = %93
  %129 = load i32, i32* %15, align 4
  %130 = call i32 (i8*, ...) @printf(i8* getelementptr inbounds ([4 x i8], [4 x i8]* @.str.1, i64 0, i64 0), i32 %129)
  br label %131

131:                                              ; preds = %128
  %132 = load i32, i32* %6, align 4
  %133 = add nsw i32 %132, 1
  store i32 %133, i32* %6, align 4
  br label %16

134:                                              ; preds = %44, %16
  ret i32 0
}

declare dso_local i32 @__isoc99_scanf(i8*, ...) #1

declare dso_local i32 @printf(i8*, ...) #1


!llvm.module.flags = !{!0}
!llvm.ident = !{!1}

!0 = !{i32 1, !"wchar_size", i32 4}
!1 = !{!"clang version 10.0.0-4ubuntu1 "}
